; Function Attrs: mustprogress uwtable
define void @_ZN8proxygen18HTTP2PriorityQueue19signalPendingEgressEPNS_22HTTP2PriorityQueueBase8BaseNodeE(ptr nocapture noundef nonnull align 8 dereferenceable(312) %this, ptr noundef %handle) unnamed_addr #4 align 2 {
entry:
  %vtable = load ptr, ptr %handle, align 8
  %vfn = getelementptr inbounds i8, ptr %vtable, i64 16
  %0 = load ptr, ptr %vfn, align 8
  %call = tail call noundef zeroext i1 %0(ptr noundef nonnull align 8 dereferenceable(8) %handle)
  br i1 %call, label %if.end, label %if.then

if.then:                                          ; preds = %entry
  %enqueued_.i = getelementptr inbounds i8, ptr %handle, i64 113
  store i8 1, ptr %enqueued_.i, align 1
  tail call void @_ZN8proxygen18HTTP2PriorityQueue4Node28propagatePendingEgressSignalEPS1_(ptr noundef nonnull %handle)
  %activeCount_ = getelementptr inbounds i8, ptr %this, i64 248
  %1 = load i64, ptr %activeCount_, align 8
  %inc = add i64 %1, 1
  store i64 %inc, ptr %activeCount_, align 8
  %pendingWeightChange_ = getelementptr inbounds i8, ptr %this, i64 280
  store i8 1, ptr %pendingWeightChange_, align 8
  br label %if.end

if.end:                                           ; preds = %if.then, %entry
  ret void
}